target datalayout = "e-m:e-p270:32:32-p271:32:32-p272:64:64-i64:64-i128:128-f80:128-n8:16:32:64-S128"
target triple = "x86_64-pc-linux-gnu"

%struct.display_data = type { i64, i32, ptr, i8, i32, ptr, ptr, ptr, ptr, ptr, ptr, ptr, ptr }
%struct._GList = type { ptr, ptr, ptr }

@global_multi_error = external global i8, align 1

; Function Attrs: nounwind uwtable
define dso_local void @select_admin_common(ptr noundef %0, ptr noundef %1, ptr noundef %2, ptr noundef %3, i32 noundef %4, ptr noundef %5) #0 {
  %7 = alloca ptr, align 8
  %8 = alloca ptr, align 8
  %9 = alloca ptr, align 8
  %10 = alloca ptr, align 8
  %11 = alloca i32, align 4
  %12 = alloca ptr, align 8
  %13 = alloca ptr, align 8
  %14 = alloca ptr, align 8
  %15 = alloca ptr, align 8
  %16 = alloca ptr, align 8
  %17 = alloca ptr, align 8
  %18 = alloca i32, align 4
  store ptr %0, ptr %7, align 8
  store ptr %1, ptr %8, align 8
  store ptr %2, ptr %9, align 8
  store ptr %3, ptr %10, align 8
  store i32 %4, ptr %11, align 4
  store ptr %5, ptr %12, align 8
  call void @llvm.lifetime.start.p0(i64 8, ptr %13) #11
  call void @llvm.lifetime.start.p0(i64 8, ptr %14) #11
  call void @llvm.lifetime.start.p0(i64 8, ptr %15) #11
  call void @llvm.lifetime.start.p0(i64 8, ptr %16) #11
  store ptr null, ptr %16, align 8
  call void @llvm.lifetime.start.p0(i64 8, ptr %17) #11
  store ptr null, ptr %17, align 8
  %19 = load ptr, ptr %10, align 8
  %20 = icmp ne ptr %19, null
  br i1 %20, label %22, label %21

21:                                               ; preds = %6
  store i32 1, ptr %18, align 4
  br label %73

22:                                               ; preds = %6
  %23 = load ptr, ptr %9, align 8
  %24 = getelementptr inbounds nuw %struct.display_data, ptr %23, i32 0, i32 4
  %25 = load i32, ptr %24, align 4
  %26 = and i32 %25, 65536
  %27 = icmp ne i32 %26, 0
  br i1 %27, label %28, label %34

28:                                               ; preds = %22
  %29 = load ptr, ptr %7, align 8
  %30 = load ptr, ptr %8, align 8
  %31 = load ptr, ptr %9, align 8
  %32 = load i32, ptr %11, align 4
  %33 = load ptr, ptr %10, align 8
  call void @select_admin_nodes(ptr noundef %29, ptr noundef %30, ptr noundef %31, i32 noundef %32, ptr noundef %33)
  store i32 1, ptr %18, align 4
  br label %73

34:                                               ; preds = %22
  store i8 0, ptr @global_multi_error, align 1
  %35 = load ptr, ptr %10, align 8
  %36 = call ptr @gtk_tree_view_get_selection(ptr noundef %35)
  store ptr %36, ptr %15, align 8
  %37 = load ptr, ptr %15, align 8
  %38 = call ptr @gtk_tree_selection_get_selected_rows(ptr noundef %37, ptr noundef %7)
  store ptr %38, ptr %17, align 8
  %39 = load ptr, ptr %17, align 8
  store ptr %39, ptr %16, align 8
  br label %40

40:                                               ; preds = %68, %34
  %41 = load ptr, ptr %16, align 8
  %42 = icmp ne ptr %41, null
  br i1 %42, label %43, label %70

43:                                               ; preds = %40
  %44 = load ptr, ptr %7, align 8
  %45 = load ptr, ptr %16, align 8
  %46 = getelementptr inbounds nuw %struct._GList, ptr %45, i32 0, i32 0
  %47 = load ptr, ptr %46, align 8
  %48 = call ptr @gtk_tree_row_reference_new(ptr noundef %44, ptr noundef %47)
  store ptr %48, ptr %14, align 8
  %49 = load ptr, ptr %14, align 8
  %50 = call ptr @gtk_tree_row_reference_get_path(ptr noundef %49)
  store ptr %50, ptr %13, align 8
  %51 = load ptr, ptr %12, align 8
  %52 = load ptr, ptr %7, align 8
  %53 = load ptr, ptr %13, align 8
  %54 = load ptr, ptr %8, align 8
  %55 = load ptr, ptr %9, align 8
  %56 = getelementptr inbounds nuw %struct.display_data, ptr %55, i32 0, i32 2
  %57 = load ptr, ptr %56, align 8
  call void %51(ptr noundef %52, ptr noundef %53, ptr noundef %54, ptr noundef %57)
  %58 = load ptr, ptr %13, align 8
  call void @gtk_tree_path_free(ptr noundef %58)
  %59 = load ptr, ptr %14, align 8
  call void @gtk_tree_row_reference_free(ptr noundef %59)
  br label %60

60:                                               ; preds = %43
  %61 = load ptr, ptr %16, align 8
  %62 = icmp ne ptr %61, null
  br i1 %62, label %63, label %67

63:                                               ; preds = %60
  %64 = load ptr, ptr %16, align 8
  %65 = getelementptr inbounds nuw %struct._GList, ptr %64, i32 0, i32 1
  %66 = load ptr, ptr %65, align 8
  br label %68

67:                                               ; preds = %60
  br label %68

68:                                               ; preds = %67, %63
  %69 = phi ptr [ %66, %63 ], [ null, %67 ]
  store ptr %69, ptr %16, align 8
  br label %40, !llvm.loop !53

70:                                               ; preds = %40
  %71 = load ptr, ptr %17, align 8
  call void @g_list_foreach(ptr noundef %71, ptr noundef @gtk_tree_path_free, ptr noundef null)
  %72 = load ptr, ptr %17, align 8
  call void @g_list_free(ptr noundef %72)
  store i32 1, ptr %18, align 4
  br label %73

73:                                               ; preds = %70, %28, %21
  call void @llvm.lifetime.end.p0(i64 8, ptr %17) #11
  call void @llvm.lifetime.end.p0(i64 8, ptr %16) #11
  call void @llvm.lifetime.end.p0(i64 8, ptr %15) #11
  call void @llvm.lifetime.end.p0(i64 8, ptr %14) #11
  call void @llvm.lifetime.end.p0(i64 8, ptr %13) #11
  ret void
}