; Function Attrs: nounwind uwtable
define dso_local void @select_admin_common(ptr noundef %0, ptr noundef %1, ptr noundef %2, ptr noundef %3, i32 noundef %4, ptr noundef readonly captures(none) %5) local_unnamed_addr #2 {
  %7 = alloca ptr, align 8
  store ptr %0, ptr %7, align 8
  %.not = icmp eq ptr %3, null
  br i1 %.not, label %26, label %8

8:                                                ; preds = %6
  %9 = getelementptr inbounds nuw i8, ptr %2, i64 28
  %10 = load i32, ptr %9, align 4
  %11 = and i32 %10, 65536
  %.not22 = icmp eq i32 %11, 0
  br i1 %.not22, label %13, label %12

12:                                               ; preds = %8
  tail call void @select_admin_nodes(ptr noundef %0, ptr noundef %1, ptr noundef nonnull %2, i32 noundef %4, ptr noundef nonnull %3) #16
  br label %26

13:                                               ; preds = %8
  store i8 0, ptr @global_multi_error, align 1
  %14 = tail call ptr @gtk_tree_view_get_selection(ptr noundef nonnull %3) #16
  %15 = call ptr @gtk_tree_selection_get_selected_rows(ptr noundef %14, ptr noundef nonnull %7) #16
  %.not2324 = icmp eq ptr %15, null
  br i1 %.not2324, label %._crit_edge, label %.lr.ph

.lr.ph:                                           ; preds = %13
  %16 = getelementptr inbounds nuw i8, ptr %2, i64 16
  br label %17

17:                                               ; preds = %.lr.ph, %17
  %.025 = phi ptr [ %15, %.lr.ph ], [ %25, %17 ]
  %18 = load ptr, ptr %7, align 8
  %19 = load ptr, ptr %.025, align 8
  %20 = call ptr @gtk_tree_row_reference_new(ptr noundef %18, ptr noundef %19) #16
  %21 = call ptr @gtk_tree_row_reference_get_path(ptr noundef %20) #16
  %22 = load ptr, ptr %7, align 8
  %23 = load ptr, ptr %16, align 8
  call void %5(ptr noundef %22, ptr noundef %21, ptr noundef %1, ptr noundef %23) #16
  call void @gtk_tree_path_free(ptr noundef %21) #16
  call void @gtk_tree_row_reference_free(ptr noundef %20) #16
  %24 = getelementptr inbounds nuw i8, ptr %.025, i64 8
  %25 = load ptr, ptr %24, align 8
  %.not23 = icmp eq ptr %25, null
  br i1 %.not23, label %._crit_edge, label %17, !llvm.loop !51

._crit_edge:                                      ; preds = %17, %13
  call void @g_list_foreach(ptr noundef %15, ptr noundef nonnull @gtk_tree_path_free, ptr noundef null) #16
  call void @g_list_free(ptr noundef %15) #16
  br label %26

26:                                               ; preds = %6, %._crit_edge, %12
  ret void
}